target datalayout = "e-m:e-p270:32:32-p271:32:32-p272:64:64-i64:64-i128:128-f80:128-n8:16:32:64-S128"
target triple = "x86_64-pc-linux-gnu"

%"class.LIEF::ELF::DynamicEntry" = type { %"class.LIEF::Object", i64, i64 }
%"class.LIEF::Object" = type { ptr }

; Function Attrs: mustprogress nounwind uwtable
define linkonce_odr hidden void @_ZN4LIEF3ELF12DynamicEntry5valueEm(ptr noundef nonnull align 8 dereferenceable(24) %0, i64 noundef %1) #1 comdat align 2 {
  %3 = alloca ptr, align 8
  %4 = alloca i64, align 8
  store ptr %0, ptr %3, align 8, !tbaa !12
  store i64 %1, ptr %4, align 8, !tbaa !10
  %5 = load ptr, ptr %3, align 8
  %6 = load i64, ptr %4, align 8, !tbaa !10
  %7 = getelementptr inbounds nuw %"class.LIEF::ELF::DynamicEntry", ptr %5, i32 0, i32 2
  store i64 %6, ptr %7, align 8, !tbaa !18
  ret void
}

; Function Attrs: mustprogress nounwind uwtable
define linkonce_odr hidden noundef i64 @_ZNK4LIEF3ELF12DynamicEntry5valueEv(ptr noundef nonnull align 8 dereferenceable(24) %0) #1 comdat align 2 {
  %2 = alloca ptr, align 8
  store ptr %0, ptr %2, align 8, !tbaa !12
  %3 = load ptr, ptr %2, align 8
  %4 = getelementptr inbounds nuw %"class.LIEF::ELF::DynamicEntry", ptr %3, i32 0, i32 2
  %5 = load i64, ptr %4, align 8, !tbaa !18
  ret i64 %5
}

; Function Attrs: mustprogress nounwind uwtable
define linkonce_odr hidden noundef i64 @_ZNK4LIEF3ELF12DynamicEntry3tagEv(ptr noundef nonnull align 8 dereferenceable(24) %0) #1 comdat align 2 {
  %2 = alloca ptr, align 8
  store ptr %0, ptr %2, align 8, !tbaa !12
  %3 = load ptr, ptr %2, align 8
  %4 = getelementptr inbounds nuw %"class.LIEF::ELF::DynamicEntry", ptr %3, i32 0, i32 1
  %5 = load i64, ptr %4, align 8, !tbaa !14
  ret i64 %5
}

; Function Attrs: mustprogress nounwind uwtable
define void @_ZN4LIEF3ELF17DynamicEntryFlags6removeENS1_4FLAGE(ptr noundef nonnull align 8 dereferenceable(24) %0, i64 noundef %1) #1 align 2 {
  %3 = alloca ptr, align 8
  %4 = alloca i64, align 8
  %5 = alloca i64, align 8
  %6 = alloca i32, align 4
  %7 = alloca i64, align 8
  store ptr %0, ptr %3, align 8, !tbaa !3
  store i64 %1, ptr %4, align 8, !tbaa !8
  %8 = load ptr, ptr %3, align 8
  %9 = call noundef i64 @_ZNK4LIEF3ELF12DynamicEntry3tagEv(ptr noundef nonnull align 8 dereferenceable(24) %8)
  %10 = icmp eq i64 %9, 30
  br i1 %10, label %11, label %24

11:                                               ; preds = %2
  call void @llvm.lifetime.start.p0(i64 8, ptr %5) #16
  %12 = load i64, ptr %4, align 8, !tbaa !8
  store i64 %12, ptr %5, align 8, !tbaa !10
  %13 = load i64, ptr %5, align 8, !tbaa !10
  %14 = icmp ule i64 4294967296, %13
  br i1 %14, label %15, label %16

15:                                               ; preds = %11
  store i32 1, ptr %6, align 4
  br label %21

16:                                               ; preds = %11
  %17 = call noundef i64 @_ZNK4LIEF3ELF12DynamicEntry5valueEv(ptr noundef nonnull align 8 dereferenceable(24) %8)
  %18 = load i64, ptr %5, align 8, !tbaa !10
  %19 = xor i64 %18, -1
  %20 = and i64 %17, %19
  call void @_ZN4LIEF3ELF12DynamicEntry5valueEm(ptr noundef nonnull align 8 dereferenceable(24) %8, i64 noundef %20)
  store i32 0, ptr %6, align 4
  br label %21

21:                                               ; preds = %16, %15
  call void @llvm.lifetime.end.p0(i64 8, ptr %5) #16
  %22 = load i32, ptr %6, align 4
  switch i32 %22, label %43 [
    i32 0, label %23
    i32 1, label %42
  ]

23:                                               ; preds = %21
  br label %24

24:                                               ; preds = %23, %2
  %25 = call noundef i64 @_ZNK4LIEF3ELF12DynamicEntry3tagEv(ptr noundef nonnull align 8 dereferenceable(24) %8)
  %26 = icmp eq i64 %25, 1879048187
  br i1 %26, label %27, label %42

27:                                               ; preds = %24
  call void @llvm.lifetime.start.p0(i64 8, ptr %7) #16
  %28 = load i64, ptr %4, align 8, !tbaa !8
  store i64 %28, ptr %7, align 8, !tbaa !10
  %29 = load i64, ptr %7, align 8, !tbaa !10
  %30 = icmp ult i64 %29, 4294967296
  br i1 %30, label %31, label %32

31:                                               ; preds = %27
  store i32 1, ptr %6, align 4
  br label %39

32:                                               ; preds = %27
  %33 = load i64, ptr %7, align 8, !tbaa !10
  %34 = sub i64 %33, 4294967296
  store i64 %34, ptr %7, align 8, !tbaa !10
  %35 = call noundef i64 @_ZNK4LIEF3ELF12DynamicEntry5valueEv(ptr noundef nonnull align 8 dereferenceable(24) %8)
  %36 = load i64, ptr %7, align 8, !tbaa !10
  %37 = xor i64 %36, -1
  %38 = and i64 %35, %37
  call void @_ZN4LIEF3ELF12DynamicEntry5valueEm(ptr noundef nonnull align 8 dereferenceable(24) %8, i64 noundef %38)
  store i32 0, ptr %6, align 4
  br label %39

39:                                               ; preds = %32, %31
  call void @llvm.lifetime.end.p0(i64 8, ptr %7) #16
  %40 = load i32, ptr %6, align 4
  switch i32 %40, label %43 [
    i32 0, label %41
    i32 1, label %42
  ]

41:                                               ; preds = %39
  br label %42

42:                                               ; preds = %21, %39, %41, %24
  ret void

43:                                               ; preds = %39, %21
  unreachable
}