; Function Attrs: mustprogress nofree norecurse nosync nounwind willreturn memory(argmem: readwrite) uwtable
define void @_ZN4LIEF3ELF17DynamicEntryFlags6removeENS1_4FLAGE(ptr noundef nonnull align 8 captures(none) dereferenceable(24) %0, i64 noundef %1) local_unnamed_addr #3 align 2 {
  %3 = getelementptr inbounds nuw i8, ptr %0, i64 8
  %4 = load i64, ptr %3, align 8, !tbaa !3
  %5 = icmp eq i64 %4, 30
  br i1 %5, label %6, label %12

6:                                                ; preds = %2
  %7 = icmp ugt i64 %1, 4294967295
  br i1 %7, label %20, label %.thread10

.thread10:                                        ; preds = %6
  %8 = getelementptr inbounds nuw i8, ptr %0, i64 16
  %9 = load i64, ptr %8, align 8, !tbaa !10
  %10 = xor i64 %1, -1
  %11 = and i64 %9, %10
  store i64 %11, ptr %8, align 8, !tbaa !10
  br label %20

12:                                               ; preds = %2
  %13 = icmp ne i64 %4, 1879048187
  %14 = icmp ult i64 %1, 4294967296
  %or.cond = or i1 %14, %13
  br i1 %or.cond, label %20, label %15

15:                                               ; preds = %12
  %16 = getelementptr inbounds nuw i8, ptr %0, i64 16
  %17 = load i64, ptr %16, align 8, !tbaa !10
  %18 = sub i64 4294967295, %1
  %19 = and i64 %17, %18
  store i64 %19, ptr %16, align 8, !tbaa !10
  br label %20

20:                                               ; preds = %.thread10, %6, %15, %12
  ret void
}